target datalayout = "e-m:e-p270:32:32-p271:32:32-p272:64:64-i64:64-i128:128-f80:128-n8:16:32:64-S128"
target triple = "x86_64-pc-linux-gnu"

%struct.Agobj_s = type { %struct.Agtag_s, ptr }
%struct.Agtag_s = type { i32, i64 }
%struct.Agrec_s = type { ptr, ptr }

; Function Attrs: nounwind uwtable
define void @agrecclose(ptr noundef %0) #0 {
  %2 = alloca ptr, align 8
  %3 = alloca ptr, align 8
  %4 = alloca ptr, align 8
  %5 = alloca ptr, align 8
  store ptr %0, ptr %2, align 8, !tbaa !11
  call void @llvm.lifetime.start.p0(i64 8, ptr %3) #10
  call void @llvm.lifetime.start.p0(i64 8, ptr %4) #10
  call void @llvm.lifetime.start.p0(i64 8, ptr %5) #10
  %6 = load ptr, ptr %2, align 8, !tbaa !11
  %7 = call ptr @agraphof(ptr noundef %6)
  store ptr %7, ptr %3, align 8, !tbaa !30
  %8 = load ptr, ptr %2, align 8, !tbaa !11
  %9 = getelementptr inbounds nuw %struct.Agobj_s, ptr %8, i32 0, i32 1
  %10 = load ptr, ptr %9, align 8, !tbaa !13
  store ptr %10, ptr %4, align 8, !tbaa !18
  %11 = icmp ne ptr %10, null
  br i1 %11, label %12, label %31

12:                                               ; preds = %1
  br label %13

13:                                               ; preds = %24, %12
  %14 = load ptr, ptr %4, align 8, !tbaa !18
  %15 = getelementptr inbounds nuw %struct.Agrec_s, ptr %14, i32 0, i32 1
  %16 = load ptr, ptr %15, align 8, !tbaa !21
  store ptr %16, ptr %5, align 8, !tbaa !18
  %17 = load ptr, ptr %3, align 8, !tbaa !30
  %18 = load ptr, ptr %4, align 8, !tbaa !18
  %19 = getelementptr inbounds nuw %struct.Agrec_s, ptr %18, i32 0, i32 0
  %20 = load ptr, ptr %19, align 8, !tbaa !19
  %21 = call i32 @agstrfree(ptr noundef %17, ptr noundef %20, i1 noundef zeroext false)
  %22 = load ptr, ptr %4, align 8, !tbaa !18
  call void @free(ptr noundef %22) #10
  %23 = load ptr, ptr %5, align 8, !tbaa !18
  store ptr %23, ptr %4, align 8, !tbaa !18
  br label %24

24:                                               ; preds = %13
  %25 = load ptr, ptr %4, align 8, !tbaa !18
  %26 = load ptr, ptr %2, align 8, !tbaa !11
  %27 = getelementptr inbounds nuw %struct.Agobj_s, ptr %26, i32 0, i32 1
  %28 = load ptr, ptr %27, align 8, !tbaa !13
  %29 = icmp ne ptr %25, %28
  br i1 %29, label %13, label %30, !llvm.loop !43

30:                                               ; preds = %24
  br label %31

31:                                               ; preds = %30, %1
  %32 = load ptr, ptr %2, align 8, !tbaa !11
  %33 = getelementptr inbounds nuw %struct.Agobj_s, ptr %32, i32 0, i32 1
  store ptr null, ptr %33, align 8, !tbaa !13
  call void @llvm.lifetime.end.p0(i64 8, ptr %5) #10
  call void @llvm.lifetime.end.p0(i64 8, ptr %4) #10
  call void @llvm.lifetime.end.p0(i64 8, ptr %3) #10
  ret void
}