; Function Attrs: nounwind uwtable
define void @agrecclose(ptr noundef %0) local_unnamed_addr #0 {
  %2 = tail call ptr @agraphof(ptr noundef %0) #11
  %3 = getelementptr inbounds nuw i8, ptr %0, i64 16
  %4 = load ptr, ptr %3, align 8, !tbaa !3
  %.not = icmp eq ptr %4, null
  br i1 %.not, label %.loopexit, label %.preheader

.preheader:                                       ; preds = %1, %.preheader
  %.0 = phi ptr [ %6, %.preheader ], [ %4, %1 ]
  %5 = getelementptr inbounds nuw i8, ptr %.0, i64 8
  %6 = load ptr, ptr %5, align 8, !tbaa !15
  %7 = load ptr, ptr %.0, align 8, !tbaa !12
  %8 = tail call i32 @agstrfree(ptr noundef %2, ptr noundef %7, i1 noundef zeroext false) #11
  tail call void @free(ptr noundef %.0) #11
  %9 = load ptr, ptr %3, align 8, !tbaa !3
  %.not11 = icmp eq ptr %6, %9
  br i1 %.not11, label %.loopexit, label %.preheader, !llvm.loop !26

.loopexit:                                        ; preds = %.preheader, %1
  store ptr null, ptr %3, align 8, !tbaa !3
  ret void
}